; Function Attrs: mustprogress nounwind uwtable
define hidden void @_ZN16ZGenerationYoung20pause_relocate_startEv(ptr nocapture nonnull readnone align 64 %0) local_unnamed_addr #0 align 2 {
  %2 = alloca %class.VM_ZRelocateStartYoung, align 8
  %3 = getelementptr inbounds i8, ptr %2, i64 24
  store i64 0, ptr %3, align 8
  %4 = load ptr, ptr @_ZN11ZGeneration6_youngE, align 8
  %5 = getelementptr inbounds i8, ptr %4, i64 6592
  %6 = load i32, ptr %5, align 64
  %7 = icmp eq i32 %6, 0
  br i1 %7, label %8, label %10

8:                                                ; preds = %1
  %9 = tail call noundef ptr @_ZN7ZDriver5minorEv() #18
  br label %12

10:                                               ; preds = %1
  %11 = tail call noundef ptr @_ZN7ZDriver5majorEv() #18
  br label %12

12:                                               ; preds = %8, %10
  %.0.i.i.i = phi ptr [ %9, %8 ], [ %11, %10 ]
  %13 = tail call noundef i32 @_ZN7ZDriver8gc_causeEv(ptr noundef nonnull align 8 dereferenceable(924) %.0.i.i.i) #18
  %14 = getelementptr inbounds i8, ptr %2, i64 8
  store ptr null, ptr %14, align 8
  %15 = getelementptr inbounds i8, ptr %2, i64 16
  %16 = tail call noundef i32 @_ZN4GCId7currentEv() #18
  store i32 %16, ptr %15, align 8
  %17 = getelementptr inbounds i8, ptr %2, i64 20
  store i32 %13, ptr %17, align 4
  %18 = getelementptr inbounds i8, ptr %2, i64 24
  store i8 0, ptr %18, align 8
  store ptr getelementptr inbounds inrange(-16, 96) (i8, ptr @_ZTV22VM_ZRelocateStartYoung, i64 16), ptr %2, align 8
  tail call void @_ZN12ZJNICritical5blockEv() #18
  call void @_ZN8VMThread7executeEP12VM_Operation(ptr noundef nonnull %2) #18
  %19 = load ptr, ptr %2, align 8
  %20 = getelementptr inbounds i8, ptr %19, i64 80
  %21 = load ptr, ptr %20, align 8
  %22 = call noundef zeroext i1 %21(ptr noundef nonnull align 8 dereferenceable(25) %2) #18
  br i1 %22, label %23, label %_ZN13VM_ZOperation5pauseEv.exit

23:                                               ; preds = %12
  call void @_ZN12ZJNICritical7unblockEv() #18
  br label %_ZN13VM_ZOperation5pauseEv.exit

_ZN13VM_ZOperation5pauseEv.exit:                  ; preds = %12, %23
  ret void
}